; Function Attrs: nofree norecurse nosync nounwind memory(argmem: readwrite) uwtable
define internal void @vp7_v_loop_filter_simple_c(ptr noundef captures(none) %0, i64 noundef %1, i32 noundef %2) #1 {
  %4 = sub nsw i64 0, %1
  %5 = mul nsw i64 %1, -2
  br label %6

6:                                                ; preds = %3, %46
  %indvars.iv = phi i64 [ 0, %3 ], [ %indvars.iv.next, %46 ]
  %7 = getelementptr inbounds nuw i8, ptr %0, i64 %indvars.iv
  %8 = getelementptr inbounds i8, ptr %7, i64 %4
  %9 = load i8, ptr %8, align 1, !tbaa !10
  %10 = zext i8 %9 to i32
  %11 = load i8, ptr %7, align 1, !tbaa !10
  %12 = zext i8 %11 to i32
  %13 = sub nsw i32 %10, %12
  %14 = tail call i32 @llvm.abs.i32(i32 %13, i1 true)
  %.not8 = icmp sgt i32 %14, %2
  br i1 %.not8, label %46, label %15

15:                                               ; preds = %6
  %16 = getelementptr inbounds i8, ptr %7, i64 %5
  %17 = load i8, ptr %16, align 1, !tbaa !10
  %18 = zext i8 %17 to i64
  %19 = getelementptr inbounds i8, ptr %7, i64 %1
  %20 = load i8, ptr %19, align 1, !tbaa !10
  %21 = zext i8 %20 to i64
  %22 = sub nsw i32 %12, %10
  %23 = mul nsw i32 %22, 3
  %24 = sub nsw i64 %18, %21
  %gep = getelementptr i8, ptr getelementptr inbounds nuw (i8, ptr @ff_crop_tab, i64 1152), i64 %24
  %25 = load i8, ptr %gep, align 1, !tbaa !10
  %26 = zext i8 %25 to i32
  %27 = add nsw i32 %23, -128
  %28 = add nsw i32 %27, %26
  %29 = sext i32 %28 to i64
  %gep9 = getelementptr i8, ptr getelementptr inbounds nuw (i8, ptr @ff_crop_tab, i64 1152), i64 %29
  %30 = load i8, ptr %gep9, align 1, !tbaa !10
  %31 = zext i8 %30 to i32
  %32 = tail call i32 @llvm.umin.i32(i32 %31, i32 251)
  %33 = add nsw i32 %32, -124
  %34 = ashr i32 %33, 3
  %35 = and i32 %31, 7
  %36 = icmp eq i32 %35, 4
  %.neg.i = sext i1 %36 to i32
  %37 = add nsw i32 %.neg.i, %10
  %38 = add nsw i32 %37, %34
  %39 = sext i32 %38 to i64
  %40 = getelementptr inbounds i8, ptr getelementptr inbounds nuw (i8, ptr @ff_crop_tab, i64 1024), i64 %39
  %41 = load i8, ptr %40, align 1, !tbaa !10
  store i8 %41, ptr %8, align 1, !tbaa !10
  %42 = sub nsw i32 %12, %34
  %43 = sext i32 %42 to i64
  %44 = getelementptr inbounds i8, ptr getelementptr inbounds nuw (i8, ptr @ff_crop_tab, i64 1024), i64 %43
  %45 = load i8, ptr %44, align 1, !tbaa !10
  store i8 %45, ptr %7, align 1, !tbaa !10
  br label %46

46:                                               ; preds = %6, %15
  %indvars.iv.next = add nuw nsw i64 %indvars.iv, 1
  %exitcond.not = icmp eq i64 %indvars.iv.next, 16
  br i1 %exitcond.not, label %47, label %6, !llvm.loop !142

47:                                               ; preds = %46
  ret void
}